target datalayout = "e-m:e-p270:32:32-p271:32:32-p272:64:64-i64:64-i128:128-f80:128-n8:16:32:64-S128"
target triple = "x86_64-pc-linux-gnu"

%struct.RelationData = type { %struct.RelFileLocator, ptr, i32, i32, i8, i8, i8, i8, i8, i32, i32, i32, i32, ptr, ptr, i32, %struct.LockInfoData, ptr, ptr, ptr, ptr, ptr, i8, ptr, ptr, ptr, ptr, ptr, ptr, i32, ptr, i8, ptr, ptr, i32, i8, i32, ptr, i8, ptr, ptr, ptr, ptr, ptr, ptr, ptr, i32, ptr, ptr, ptr, ptr, ptr, ptr, ptr, ptr, ptr, ptr, ptr, ptr, ptr, ptr, ptr, ptr, ptr, ptr, ptr, i32, i8, ptr }
%struct.RelFileLocator = type { i32, i32, i32 }
%struct.LockInfoData = type { %struct.LockRelId }
%struct.LockRelId = type { i32, i32 }
%struct.TableAmRoutine = type { i32, ptr, ptr, ptr, ptr, ptr, ptr, ptr, ptr, ptr, ptr, ptr, ptr, ptr, ptr, ptr, ptr, ptr, ptr, ptr, ptr, ptr, ptr, ptr, ptr, ptr, ptr, ptr, ptr, ptr, ptr, ptr, ptr, ptr, ptr, ptr, ptr, ptr, ptr, ptr, ptr, ptr, ptr, ptr, ptr, ptr }
%struct.SysScanDescData = type { ptr, ptr, ptr, ptr, ptr, ptr }
%struct.TableScanDescData = type { ptr, ptr, i32, ptr, %union.anon, i32, ptr }
%union.anon = type { %struct.TBMIterator }
%struct.TBMIterator = type { i8, %union.anon.0 }
%union.anon.0 = type { ptr }

@CheckXidAlive = external global i32, align 4
@bsysscan = external global i8, align 1

; Function Attrs: inlinehint nounwind uwtable
define internal void @table_endscan(ptr noundef %0) #3 {
  %2 = alloca ptr, align 8
  store ptr %0, ptr %2, align 8
  %3 = load ptr, ptr %2, align 8
  %4 = getelementptr inbounds nuw %struct.TableScanDescData, ptr %3, i32 0, i32 0
  %5 = load ptr, ptr %4, align 8
  %6 = getelementptr inbounds nuw %struct.RelationData, ptr %5, i32 0, i32 47
  %7 = load ptr, ptr %6, align 8
  %8 = getelementptr inbounds nuw %struct.TableAmRoutine, ptr %7, i32 0, i32 3
  %9 = load ptr, ptr %8, align 8
  %10 = load ptr, ptr %2, align 8
  call void %9(ptr noundef %10)
  ret void
}

; Function Attrs: nounwind uwtable
define dso_local void @systable_endscan(ptr noundef %0) #0 {
  %2 = alloca ptr, align 8
  store ptr %0, ptr %2, align 8
  %3 = load ptr, ptr %2, align 8
  %4 = getelementptr inbounds nuw %struct.SysScanDescData, ptr %3, i32 0, i32 5
  %5 = load ptr, ptr %4, align 8
  %6 = icmp ne ptr %5, null
  br i1 %6, label %7, label %13

7:                                                ; preds = %1
  %8 = load ptr, ptr %2, align 8
  %9 = getelementptr inbounds nuw %struct.SysScanDescData, ptr %8, i32 0, i32 5
  %10 = load ptr, ptr %9, align 8
  call void @ExecDropSingleTupleTableSlot(ptr noundef %10)
  %11 = load ptr, ptr %2, align 8
  %12 = getelementptr inbounds nuw %struct.SysScanDescData, ptr %11, i32 0, i32 5
  store ptr null, ptr %12, align 8
  br label %13

13:                                               ; preds = %7, %1
  %14 = load ptr, ptr %2, align 8
  %15 = getelementptr inbounds nuw %struct.SysScanDescData, ptr %14, i32 0, i32 1
  %16 = load ptr, ptr %15, align 8
  %17 = icmp ne ptr %16, null
  br i1 %17, label %18, label %25

18:                                               ; preds = %13
  %19 = load ptr, ptr %2, align 8
  %20 = getelementptr inbounds nuw %struct.SysScanDescData, ptr %19, i32 0, i32 3
  %21 = load ptr, ptr %20, align 8
  call void @index_endscan(ptr noundef %21)
  %22 = load ptr, ptr %2, align 8
  %23 = getelementptr inbounds nuw %struct.SysScanDescData, ptr %22, i32 0, i32 1
  %24 = load ptr, ptr %23, align 8
  call void @index_close(ptr noundef %24, i32 noundef 1)
  br label %29

25:                                               ; preds = %13
  %26 = load ptr, ptr %2, align 8
  %27 = getelementptr inbounds nuw %struct.SysScanDescData, ptr %26, i32 0, i32 2
  %28 = load ptr, ptr %27, align 8
  call void @table_endscan(ptr noundef %28)
  br label %29

29:                                               ; preds = %25, %18
  %30 = load ptr, ptr %2, align 8
  %31 = getelementptr inbounds nuw %struct.SysScanDescData, ptr %30, i32 0, i32 4
  %32 = load ptr, ptr %31, align 8
  %33 = icmp ne ptr %32, null
  br i1 %33, label %34, label %38

34:                                               ; preds = %29
  %35 = load ptr, ptr %2, align 8
  %36 = getelementptr inbounds nuw %struct.SysScanDescData, ptr %35, i32 0, i32 4
  %37 = load ptr, ptr %36, align 8
  call void @UnregisterSnapshot(ptr noundef %37)
  br label %38

38:                                               ; preds = %34, %29
  %39 = load i32, ptr @CheckXidAlive, align 4
  %40 = icmp ne i32 %39, 0
  br i1 %40, label %41, label %42

41:                                               ; preds = %38
  store i8 0, ptr @bsysscan, align 1
  br label %42

42:                                               ; preds = %41, %38
  %43 = load ptr, ptr %2, align 8
  call void @pfree(ptr noundef %43)
  ret void
}