; Function Attrs: nounwind uwtable
define dso_local void @systable_endscan(ptr noundef %0) #0 {
  %2 = getelementptr inbounds nuw i8, ptr %0, i64 40
  %3 = load ptr, ptr %2, align 8
  %.not = icmp eq ptr %3, null
  br i1 %.not, label %5, label %4

4:                                                ; preds = %1
  tail call void @ExecDropSingleTupleTableSlot(ptr noundef nonnull %3) #7
  store ptr null, ptr %2, align 8
  br label %5

5:                                                ; preds = %4, %1
  %6 = getelementptr inbounds nuw i8, ptr %0, i64 8
  %7 = load ptr, ptr %6, align 8
  %.not11 = icmp eq ptr %7, null
  br i1 %.not11, label %12, label %8

8:                                                ; preds = %5
  %9 = getelementptr inbounds nuw i8, ptr %0, i64 24
  %10 = load ptr, ptr %9, align 8
  tail call void @index_endscan(ptr noundef %10) #7
  %11 = load ptr, ptr %6, align 8
  tail call void @index_close(ptr noundef %11, i32 noundef 1) #7
  br label %20

12:                                               ; preds = %5
  %13 = getelementptr inbounds nuw i8, ptr %0, i64 16
  %14 = load ptr, ptr %13, align 8
  %15 = load ptr, ptr %14, align 8
  %16 = getelementptr inbounds nuw i8, ptr %15, i64 320
  %17 = load ptr, ptr %16, align 8
  %18 = getelementptr inbounds nuw i8, ptr %17, i64 24
  %19 = load ptr, ptr %18, align 8
  tail call void %19(ptr noundef nonnull %14) #7
  br label %20

20:                                               ; preds = %12, %8
  %21 = getelementptr inbounds nuw i8, ptr %0, i64 32
  %22 = load ptr, ptr %21, align 8
  %.not12 = icmp eq ptr %22, null
  br i1 %.not12, label %24, label %23

23:                                               ; preds = %20
  tail call void @UnregisterSnapshot(ptr noundef nonnull %22) #7
  br label %24

24:                                               ; preds = %23, %20
  %25 = load i32, ptr @CheckXidAlive, align 4
  %.not13 = icmp eq i32 %25, 0
  br i1 %.not13, label %27, label %26

26:                                               ; preds = %24
  store i8 0, ptr @bsysscan, align 1
  br label %27

27:                                               ; preds = %26, %24
  tail call void @pfree(ptr noundef nonnull %0) #7
  ret void
}